; Function Attrs: nounwind uwtable
define ptr @Fra_LcrCreatePart_rec(ptr noundef %0, ptr noundef %1, ptr noundef %2, ptr noundef captures(none) %3) local_unnamed_addr #2 {
  %5 = getelementptr i8, ptr %2, i64 312
  %.val39 = load i32, ptr %5, align 8
  %6 = getelementptr i8, ptr %3, i64 32
  %.val40 = load i32, ptr %6, align 8
  %.not = icmp eq i32 %.val40, %.val39
  br i1 %.not, label %7, label %10

7:                                                ; preds = %4
  %8 = getelementptr inbounds nuw i8, ptr %3, i64 40
  %9 = load ptr, ptr %8, align 8
  br label %common.ret

10:                                               ; preds = %4
  store i32 %.val39, ptr %6, align 8
  %11 = getelementptr i8, ptr %3, i64 24
  %.val42 = load i64, ptr %11, align 8
  %12 = and i64 %.val42, 7
  %.not44 = icmp eq i64 %12, 2
  br i1 %.not44, label %13, label %36

13:                                               ; preds = %10
  %14 = getelementptr inbounds nuw i8, ptr %0, i64 8
  %15 = load ptr, ptr %14, align 8
  %16 = getelementptr inbounds nuw i8, ptr %3, i64 36
  %17 = load i32, ptr %16, align 4
  %18 = sext i32 %17 to i64
  %19 = getelementptr inbounds ptr, ptr %15, i64 %18
  %20 = load ptr, ptr %19, align 8
  %21 = icmp eq ptr %20, null
  %22 = getelementptr inbounds nuw i8, ptr %3, i64 40
  br i1 %21, label %23, label %25

23:                                               ; preds = %13
  %24 = tail call ptr @Aig_ObjCreateCi(ptr noundef %1) #18
  store ptr %24, ptr %22, align 8
  br label %common.ret

common.ret:                                       ; preds = %7, %Aig_ObjChild1Copy.exit, %23, %25
  %common.ret.op = phi ptr [ %35, %25 ], [ %9, %7 ], [ %69, %Aig_ObjChild1Copy.exit ], [ %24, %23 ]
  ret ptr %common.ret.op

25:                                               ; preds = %13
  %26 = tail call ptr @Fra_LcrCreatePart_rec(ptr noundef nonnull %0, ptr noundef %1, ptr noundef nonnull %2, ptr noundef nonnull %20)
  store ptr %26, ptr %22, align 8
  %27 = getelementptr inbounds nuw i8, ptr %20, i64 24
  %28 = load i64, ptr %27, align 8
  %29 = load i64, ptr %11, align 8
  %30 = xor i64 %29, %28
  %31 = lshr i64 %30, 3
  %32 = and i64 %31, 1
  %33 = ptrtoint ptr %26 to i64
  %34 = xor i64 %32, %33
  %35 = inttoptr i64 %34 to ptr
  store ptr %35, ptr %22, align 8
  br label %common.ret

36:                                               ; preds = %10
  %37 = getelementptr i8, ptr %3, i64 8
  %.val = load ptr, ptr %37, align 8
  %38 = ptrtoint ptr %.val to i64
  %39 = and i64 %38, -2
  %40 = inttoptr i64 %39 to ptr
  %41 = tail call ptr @Fra_LcrCreatePart_rec(ptr noundef %0, ptr noundef %1, ptr noundef nonnull %2, ptr noundef %40)
  %42 = getelementptr i8, ptr %3, i64 16
  %.val37 = load ptr, ptr %42, align 8
  %43 = ptrtoint ptr %.val37 to i64
  %44 = and i64 %43, -2
  %45 = inttoptr i64 %44 to ptr
  %46 = tail call ptr @Fra_LcrCreatePart_rec(ptr noundef %0, ptr noundef %1, ptr noundef nonnull %2, ptr noundef %45)
  %.val36 = load ptr, ptr %37, align 8
  %47 = ptrtoint ptr %.val36 to i64
  %48 = and i64 %47, -2
  %.not.i = icmp eq i64 %48, 0
  br i1 %.not.i, label %Aig_ObjChild0Copy.exit, label %49

49:                                               ; preds = %36
  %50 = inttoptr i64 %48 to ptr
  %51 = getelementptr inbounds nuw i8, ptr %50, i64 40
  %52 = load ptr, ptr %51, align 8
  %53 = and i64 %47, 1
  %54 = ptrtoint ptr %52 to i64
  %55 = xor i64 %53, %54
  %56 = inttoptr i64 %55 to ptr
  br label %Aig_ObjChild0Copy.exit

Aig_ObjChild0Copy.exit:                           ; preds = %36, %49
  %57 = phi ptr [ %56, %49 ], [ null, %36 ]
  %.val38 = load ptr, ptr %42, align 8
  %58 = ptrtoint ptr %.val38 to i64
  %59 = and i64 %58, -2
  %.not.i43 = icmp eq i64 %59, 0
  br i1 %.not.i43, label %Aig_ObjChild1Copy.exit, label %60

60:                                               ; preds = %Aig_ObjChild0Copy.exit
  %61 = inttoptr i64 %59 to ptr
  %62 = getelementptr inbounds nuw i8, ptr %61, i64 40
  %63 = load ptr, ptr %62, align 8
  %64 = and i64 %58, 1
  %65 = ptrtoint ptr %63 to i64
  %66 = xor i64 %64, %65
  %67 = inttoptr i64 %66 to ptr
  br label %Aig_ObjChild1Copy.exit

Aig_ObjChild1Copy.exit:                           ; preds = %Aig_ObjChild0Copy.exit, %60
  %68 = phi ptr [ %67, %60 ], [ null, %Aig_ObjChild0Copy.exit ]
  %69 = tail call ptr @Aig_And(ptr noundef %1, ptr noundef %57, ptr noundef %68) #18
  %70 = getelementptr inbounds nuw i8, ptr %3, i64 40
  store ptr %69, ptr %70, align 8
  br label %common.ret
}